; Function Attrs: nounwind uwtable
define hidden i64 @_PyCompile_AddConst(ptr noundef readonly captures(none) %0, ptr noundef %1) local_unnamed_addr #0 {
  %3 = getelementptr inbounds nuw i8, ptr %0, i64 56
  %4 = load ptr, ptr %3, align 8, !tbaa !41
  %5 = tail call fastcc ptr @const_cache_insert(ptr noundef %4, ptr noundef %1, i1 noundef zeroext true)
  %6 = icmp eq ptr %5, null
  br i1 %6, label %Py_DECREF.exit, label %7

7:                                                ; preds = %2
  %8 = getelementptr inbounds nuw i8, ptr %0, i64 64
  %9 = load ptr, ptr %8, align 8, !tbaa !42
  %10 = getelementptr inbounds nuw i8, ptr %9, i64 912
  %11 = load ptr, ptr %10, align 8, !tbaa !43
  %12 = tail call i64 @_PyCompile_DictAddObj(ptr noundef %11, ptr noundef nonnull %5)
  %13 = load i32, ptr %5, align 8, !tbaa !4
  %.not.i = icmp sgt i32 %13, -1
  br i1 %.not.i, label %14, label %Py_DECREF.exit

14:                                               ; preds = %7
  %15 = add nsw i32 %13, -1
  store i32 %15, ptr %5, align 8, !tbaa !4
  %16 = icmp eq i32 %15, 0
  br i1 %16, label %17, label %Py_DECREF.exit

17:                                               ; preds = %14
  tail call void @_Py_Dealloc(ptr noundef nonnull %5) #11
  br label %Py_DECREF.exit

Py_DECREF.exit:                                   ; preds = %17, %14, %7, %2
  %.0 = phi i64 [ -1, %2 ], [ %12, %7 ], [ %12, %14 ], [ %12, %17 ]
  ret i64 %.0
}